; Function Attrs: mustprogress uwtable
define void @_ZNK8QuantLib6Shibor5cloneERKNS_6HandleINS_18YieldTermStructureEEE(ptr dead_on_unwind noalias writable sret(%"class.boost::shared_ptr.19") align 8 %agg.result, ptr nocapture noundef nonnull readonly align 8 dereferenceable(265) %this, ptr noundef nonnull align 8 dereferenceable(16) %h) unnamed_addr #6 align 2 personality ptr @__gxx_personality_v0 {
entry:
  %ref.tmp = alloca %"class.QuantLib::Period", align 8
  %call = tail call noalias noundef nonnull dereferenceable(272) ptr @_Znwm(i64 noundef 272) #25
  call void @llvm.lifetime.start.p0(i64 8, ptr nonnull %ref.tmp) #21
  %tenor_.i = getelementptr inbounds nuw i8, ptr %this, i64 144
  %retval.sroa.0.0.copyload.i = load i64, ptr %tenor_.i, align 8
  store i64 %retval.sroa.0.0.copyload.i, ptr %ref.tmp, align 8
  invoke void @_ZN8QuantLib6ShiborC1ERKNS_6PeriodERKNS_6HandleINS_18YieldTermStructureEEE(ptr noundef nonnull align 8 dereferenceable(265) %call, ptr noundef nonnull align 4 dereferenceable(8) %ref.tmp, ptr noundef nonnull align 8 dereferenceable(16) %h)
          to label %invoke.cont3 unwind label %cleanup.action

invoke.cont3:                                     ; preds = %entry
  store ptr %call, ptr %agg.result, align 8, !tbaa !57
  %pn.i = getelementptr inbounds nuw i8, ptr %agg.result, i64 8
  store ptr null, ptr %pn.i, align 8, !tbaa !44
  %call.i.i.i = invoke noalias noundef nonnull dereferenceable(24) ptr @_Znwm(i64 noundef 24) #25
          to label %invoke.cont4 unwind label %lpad.i.i.i

lpad.i.i.i:                                       ; preds = %invoke.cont3
  %0 = landingpad { ptr, i32 }
          catch ptr null
  %1 = extractvalue { ptr, i32 } %0, 0
  %2 = call ptr @__cxa_begin_catch(ptr %1) #21
  %vtable.i.i.i.i = load ptr, ptr %call, align 8, !tbaa !28
  %vfn.i.i.i.i = getelementptr inbounds i8, ptr %vtable.i.i.i.i, i64 8
  %3 = load ptr, ptr %vfn.i.i.i.i, align 8
  call void %3(ptr noundef nonnull align 8 dereferenceable(265) %call) #21
  invoke void @__cxa_rethrow() #23
          to label %unreachable.i.i.i unwind label %lpad5.i.i.i

lpad5.i.i.i:                                      ; preds = %lpad.i.i.i
  %4 = landingpad { ptr, i32 }
          cleanup
  invoke void @__cxa_end_catch()
          to label %lpad.body unwind label %terminate.lpad.i.i.i

terminate.lpad.i.i.i:                             ; preds = %lpad5.i.i.i
  %5 = landingpad { ptr, i32 }
          catch ptr null
  %6 = extractvalue { ptr, i32 } %5, 0
  call void @__clang_call_terminate(ptr %6) #22
  unreachable

unreachable.i.i.i:                                ; preds = %lpad.i.i.i
  unreachable

invoke.cont4:                                     ; preds = %invoke.cont3
  %use_count_.i.i.i.i.i = getelementptr inbounds nuw i8, ptr %call.i.i.i, i64 8
  store i32 1, ptr %use_count_.i.i.i.i.i, align 8, !tbaa !59
  %weak_count_.i.i.i.i.i = getelementptr inbounds nuw i8, ptr %call.i.i.i, i64 12
  store i32 1, ptr %weak_count_.i.i.i.i.i, align 4, !tbaa !61
  store ptr getelementptr inbounds inrange(-16, 56) (i8, ptr @_ZTVN5boost6detail17sp_counted_impl_pIN8QuantLib6ShiborEEE, i64 16), ptr %call.i.i.i, align 8, !tbaa !28
  %px_.i.i.i.i = getelementptr inbounds nuw i8, ptr %call.i.i.i, i64 16
  store ptr %call, ptr %px_.i.i.i.i, align 8, !tbaa !62
  store ptr %call.i.i.i, ptr %pn.i, align 8, !tbaa !44
  call void @llvm.lifetime.end.p0(i64 8, ptr nonnull %ref.tmp) #21
  ret void

lpad.body:                                        ; preds = %lpad5.i.i.i
  call void @_ZN5boost6detail12shared_countD2Ev(ptr noundef nonnull align 8 dereferenceable(8) %pn.i) #21
  call void @llvm.lifetime.end.p0(i64 8, ptr nonnull %ref.tmp) #21
  br label %eh.resume

cleanup.action:                                   ; preds = %entry
  %7 = landingpad { ptr, i32 }
          cleanup
  call void @llvm.lifetime.end.p0(i64 8, ptr nonnull %ref.tmp) #21
  call void @_ZdlPvm(ptr noundef nonnull %call, i64 noundef 272) #24
  br label %eh.resume

eh.resume:                                        ; preds = %lpad.body, %cleanup.action
  %eh.lpad-body3 = phi { ptr, i32 } [ %4, %lpad.body ], [ %7, %cleanup.action ]
  resume { ptr, i32 } %eh.lpad-body3
}